target datalayout = "e-m:e-p270:32:32-p271:32:32-p272:64:64-i64:64-i128:128-f80:128-n8:16:32:64-S128"
target triple = "x86_64-pc-linux-gnu"

%"class.zmq::signaler_t" = type { i32, i32, i32 }

@stderr = external global ptr, align 8
@.str = private unnamed_addr constant [12 x i8] c"%s (%s:%d)\0A\00", align 1
@.str.1 = private unnamed_addr constant [108 x i8] c"generated/home/dtcxzyw/WorkSpace/Projects/compilers/llvm-opt-benchmark/bench/libzmq/libzmq/src/signaler.cpp\00", align 1
@.str.2 = private unnamed_addr constant [30 x i8] c"Assertion failed: %s (%s:%d)\0A\00", align 1
@.str.5 = private unnamed_addr constant [11 x i8] c"dummy == 1\00", align 1

; Function Attrs: mustprogress uwtable
define noundef i32 @_ZN3zmq10signaler_t13recv_failableEv(ptr noundef nonnull align 4 dereferenceable(12) %0) #0 align 2 {
  %2 = alloca i32, align 4
  %3 = alloca ptr, align 8
  %4 = alloca i64, align 8
  %5 = alloca i64, align 8
  %6 = alloca ptr, align 8
  %7 = alloca i32, align 4
  %8 = alloca ptr, align 8
  %9 = alloca i64, align 8
  %10 = alloca i64, align 8
  %11 = alloca ptr, align 8
  store ptr %0, ptr %3, align 8, !tbaa !3
  %12 = load ptr, ptr %3, align 8
  call void @llvm.lifetime.start.p0(i64 8, ptr %4) #9
  call void @llvm.lifetime.start.p0(i64 8, ptr %5) #9
  %13 = getelementptr inbounds nuw %"class.zmq::signaler_t", ptr %12, i32 0, i32 1
  %14 = load i32, ptr %13, align 4, !tbaa !11
  %15 = call i64 @read(i32 noundef %14, ptr noundef %4, i64 noundef 8)
  store i64 %15, ptr %5, align 8, !tbaa !20
  %16 = load i64, ptr %5, align 8, !tbaa !20
  %17 = icmp eq i64 %16, -1
  br i1 %17, label %18, label %40

18:                                               ; preds = %1
  br label %19

19:                                               ; preds = %18
  %20 = call ptr @__errno_location() #10
  %21 = load i32, ptr %20, align 4, !tbaa !13
  %22 = icmp eq i32 %21, 11
  %23 = xor i1 %22, true
  %24 = zext i1 %23 to i64
  %25 = call i64 @llvm.expect.i64(i64 %24, i64 0)
  %26 = icmp ne i64 %25, 0
  br i1 %26, label %27, label %37

27:                                               ; preds = %19
  call void @llvm.lifetime.start.p0(i64 8, ptr %6) #9
  %28 = call ptr @__errno_location() #10
  %29 = load i32, ptr %28, align 4, !tbaa !13
  %30 = call ptr @strerror(i32 noundef %29) #9
  store ptr %30, ptr %6, align 8, !tbaa !14
  %31 = load ptr, ptr @stderr, align 8, !tbaa !16
  %32 = load ptr, ptr %6, align 8, !tbaa !14
  %33 = call i32 (ptr, ptr, ...) @fprintf(ptr noundef %31, ptr noundef @.str, ptr noundef %32, ptr noundef @.str.1, i32 noundef 318) #9
  %34 = load ptr, ptr @stderr, align 8, !tbaa !16
  %35 = call i32 @fflush(ptr noundef %34)
  %36 = load ptr, ptr %6, align 8, !tbaa !14
  call void @_ZN3zmq9zmq_abortEPKc(ptr noundef %36)
  call void @llvm.lifetime.end.p0(i64 8, ptr %6) #9
  br label %37

37:                                               ; preds = %27, %19
  br label %38

38:                                               ; preds = %37
  br label %39

39:                                               ; preds = %38
  store i32 -1, ptr %2, align 4
  store i32 1, ptr %7, align 4
  br label %108

40:                                               ; preds = %1
  br label %41

41:                                               ; preds = %40
  %42 = load i64, ptr %5, align 8, !tbaa !20
  %43 = icmp eq i64 %42, 8
  %44 = xor i1 %43, true
  %45 = zext i1 %44 to i64
  %46 = call i64 @llvm.expect.i64(i64 %45, i64 0)
  %47 = icmp ne i64 %46, 0
  br i1 %47, label %48, label %58

48:                                               ; preds = %41
  call void @llvm.lifetime.start.p0(i64 8, ptr %8) #9
  %49 = call ptr @__errno_location() #10
  %50 = load i32, ptr %49, align 4, !tbaa !13
  %51 = call ptr @strerror(i32 noundef %50) #9
  store ptr %51, ptr %8, align 8, !tbaa !14
  %52 = load ptr, ptr @stderr, align 8, !tbaa !16
  %53 = load ptr, ptr %8, align 8, !tbaa !14
  %54 = call i32 (ptr, ptr, ...) @fprintf(ptr noundef %52, ptr noundef @.str, ptr noundef %53, ptr noundef @.str.1, i32 noundef 321) #9
  %55 = load ptr, ptr @stderr, align 8, !tbaa !16
  %56 = call i32 @fflush(ptr noundef %55)
  %57 = load ptr, ptr %8, align 8, !tbaa !14
  call void @_ZN3zmq9zmq_abortEPKc(ptr noundef %57)
  call void @llvm.lifetime.end.p0(i64 8, ptr %8) #9
  br label %58

58:                                               ; preds = %48, %41
  br label %59

59:                                               ; preds = %58
  br label %60

60:                                               ; preds = %59
  %61 = load i64, ptr %4, align 8, !tbaa !20
  %62 = icmp ugt i64 %61, 1
  %63 = zext i1 %62 to i64
  %64 = call i64 @llvm.expect.i64(i64 %63, i64 0)
  %65 = icmp ne i64 %64, 0
  br i1 %65, label %66, label %92

66:                                               ; preds = %60
  call void @llvm.lifetime.start.p0(i64 8, ptr %9) #9
  %67 = load i64, ptr %4, align 8, !tbaa !20
  %68 = sub i64 %67, 1
  store i64 %68, ptr %9, align 8, !tbaa !20
  call void @llvm.lifetime.start.p0(i64 8, ptr %10) #9
  %69 = getelementptr inbounds nuw %"class.zmq::signaler_t", ptr %12, i32 0, i32 0
  %70 = load i32, ptr %69, align 4, !tbaa !8
  %71 = call i64 @write(i32 noundef %70, ptr noundef %9, i64 noundef 8)
  store i64 %71, ptr %10, align 8, !tbaa !20
  br label %72

72:                                               ; preds = %66
  %73 = load i64, ptr %10, align 8, !tbaa !20
  %74 = icmp eq i64 %73, 8
  %75 = xor i1 %74, true
  %76 = zext i1 %75 to i64
  %77 = call i64 @llvm.expect.i64(i64 %76, i64 0)
  %78 = icmp ne i64 %77, 0
  br i1 %78, label %79, label %89

79:                                               ; preds = %72
  call void @llvm.lifetime.start.p0(i64 8, ptr %11) #9
  %80 = call ptr @__errno_location() #10
  %81 = load i32, ptr %80, align 4, !tbaa !13
  %82 = call ptr @strerror(i32 noundef %81) #9
  store ptr %82, ptr %11, align 8, !tbaa !14
  %83 = load ptr, ptr @stderr, align 8, !tbaa !16
  %84 = load ptr, ptr %11, align 8, !tbaa !14
  %85 = call i32 (ptr, ptr, ...) @fprintf(ptr noundef %83, ptr noundef @.str, ptr noundef %84, ptr noundef @.str.1, i32 noundef 328) #9
  %86 = load ptr, ptr @stderr, align 8, !tbaa !16
  %87 = call i32 @fflush(ptr noundef %86)
  %88 = load ptr, ptr %11, align 8, !tbaa !14
  call void @_ZN3zmq9zmq_abortEPKc(ptr noundef %88)
  call void @llvm.lifetime.end.p0(i64 8, ptr %11) #9
  br label %89

89:                                               ; preds = %79, %72
  br label %90

90:                                               ; preds = %89
  br label %91

91:                                               ; preds = %90
  store i32 0, ptr %2, align 4
  store i32 1, ptr %7, align 4
  call void @llvm.lifetime.end.p0(i64 8, ptr %10) #9
  call void @llvm.lifetime.end.p0(i64 8, ptr %9) #9
  br label %108

92:                                               ; preds = %60
  br label %93

93:                                               ; preds = %92
  %94 = load i64, ptr %4, align 8, !tbaa !20
  %95 = icmp eq i64 %94, 1
  %96 = xor i1 %95, true
  %97 = zext i1 %96 to i64
  %98 = call i64 @llvm.expect.i64(i64 %97, i64 0)
  %99 = icmp ne i64 %98, 0
  br i1 %99, label %100, label %105

100:                                              ; preds = %93
  %101 = load ptr, ptr @stderr, align 8, !tbaa !16
  %102 = call i32 (ptr, ptr, ...) @fprintf(ptr noundef %101, ptr noundef @.str.2, ptr noundef @.str.5, ptr noundef @.str.1, i32 noundef 332) #9
  %103 = load ptr, ptr @stderr, align 8, !tbaa !16
  %104 = call i32 @fflush(ptr noundef %103)
  call void @_ZN3zmq9zmq_abortEPKc(ptr noundef @.str.5)
  br label %105

105:                                              ; preds = %100, %93
  br label %106

106:                                              ; preds = %105
  br label %107

107:                                              ; preds = %106
  store i32 0, ptr %2, align 4
  store i32 1, ptr %7, align 4
  br label %108

108:                                              ; preds = %107, %91, %39
  call void @llvm.lifetime.end.p0(i64 8, ptr %5) #9
  call void @llvm.lifetime.end.p0(i64 8, ptr %4) #9
  %109 = load i32, ptr %2, align 4
  ret i32 %109
}