; Function Attrs: mustprogress uwtable
define noundef range(i32 -1, 1) i32 @_ZN3zmq10signaler_t13recv_failableEv(ptr noundef nonnull readonly align 4 captures(none) dereferenceable(12) %0) local_unnamed_addr #0 align 2 {
  %2 = alloca i64, align 8
  %3 = alloca i64, align 8
  call void @llvm.lifetime.start.p0(i64 8, ptr nonnull %2) #11
  %4 = getelementptr inbounds nuw i8, ptr %0, i64 4
  %5 = load i32, ptr %4, align 4, !tbaa !8
  %6 = call i64 @read(i32 noundef %5, ptr noundef nonnull %2, i64 noundef 8)
  switch i64 %6, label %16 [
    i64 -1, label %7
    i64 8, label %24
  ], !prof !26

7:                                                ; preds = %1
  %8 = tail call ptr @__errno_location() #12
  %9 = load i32, ptr %8, align 4, !tbaa !10
  %.not14 = icmp eq i32 %9, 11
  br i1 %.not14, label %46, label %10, !prof !17

10:                                               ; preds = %7
  %11 = tail call ptr @strerror(i32 noundef %9) #11
  %12 = load ptr, ptr @stderr, align 8, !tbaa !14
  %13 = tail call i32 (ptr, ptr, ...) @fprintf(ptr noundef %12, ptr noundef nonnull @.str, ptr noundef %11, ptr noundef nonnull @.str.1, i32 noundef 318) #13
  %14 = load ptr, ptr @stderr, align 8, !tbaa !14
  %15 = tail call i32 @fflush(ptr noundef %14)
  tail call void @_ZN3zmq9zmq_abortEPKc(ptr noundef %11)
  br label %46

16:                                               ; preds = %1
  %17 = tail call ptr @__errno_location() #12
  %18 = load i32, ptr %17, align 4, !tbaa !10
  %19 = tail call ptr @strerror(i32 noundef %18) #11
  %20 = load ptr, ptr @stderr, align 8, !tbaa !14
  %21 = tail call i32 (ptr, ptr, ...) @fprintf(ptr noundef %20, ptr noundef nonnull @.str, ptr noundef %19, ptr noundef nonnull @.str.1, i32 noundef 321) #13
  %22 = load ptr, ptr @stderr, align 8, !tbaa !14
  %23 = tail call i32 @fflush(ptr noundef %22)
  tail call void @_ZN3zmq9zmq_abortEPKc(ptr noundef %19)
  br label %24

24:                                               ; preds = %1, %16
  %25 = load i64, ptr %2, align 8, !tbaa !18
  %26 = icmp ugt i64 %25, 1
  br i1 %26, label %27, label %40, !prof !24

27:                                               ; preds = %24
  call void @llvm.lifetime.start.p0(i64 8, ptr nonnull %3) #11
  %28 = add i64 %25, -1
  store i64 %28, ptr %3, align 8, !tbaa !18
  %29 = load i32, ptr %0, align 4, !tbaa !3
  %30 = call i64 @write(i32 noundef %29, ptr noundef nonnull %3, i64 noundef 8)
  %.not13 = icmp eq i64 %30, 8
  br i1 %.not13, label %39, label %31, !prof !17

31:                                               ; preds = %27
  %32 = tail call ptr @__errno_location() #12
  %33 = load i32, ptr %32, align 4, !tbaa !10
  %34 = tail call ptr @strerror(i32 noundef %33) #11
  %35 = load ptr, ptr @stderr, align 8, !tbaa !14
  %36 = tail call i32 (ptr, ptr, ...) @fprintf(ptr noundef %35, ptr noundef nonnull @.str, ptr noundef %34, ptr noundef nonnull @.str.1, i32 noundef 328) #13
  %37 = load ptr, ptr @stderr, align 8, !tbaa !14
  %38 = tail call i32 @fflush(ptr noundef %37)
  tail call void @_ZN3zmq9zmq_abortEPKc(ptr noundef %34)
  br label %39

39:                                               ; preds = %31, %27
  call void @llvm.lifetime.end.p0(i64 8, ptr nonnull %3) #11
  br label %46

40:                                               ; preds = %24
  %.not12 = icmp eq i64 %25, 1
  br i1 %.not12, label %46, label %41, !prof !17

41:                                               ; preds = %40
  %42 = load ptr, ptr @stderr, align 8, !tbaa !14
  %43 = tail call i32 (ptr, ptr, ...) @fprintf(ptr noundef %42, ptr noundef nonnull @.str.2, ptr noundef nonnull @.str.5, ptr noundef nonnull @.str.1, i32 noundef 332) #13
  %44 = load ptr, ptr @stderr, align 8, !tbaa !14
  %45 = tail call i32 @fflush(ptr noundef %44)
  tail call void @_ZN3zmq9zmq_abortEPKc(ptr noundef nonnull @.str.5)
  br label %46

46:                                               ; preds = %40, %41, %7, %10, %39
  %.0 = phi i32 [ 0, %39 ], [ -1, %10 ], [ -1, %7 ], [ 0, %41 ], [ 0, %40 ]
  call void @llvm.lifetime.end.p0(i64 8, ptr nonnull %2) #11
  ret i32 %.0
}